target datalayout = "e-m:e-p270:32:32-p271:32:32-p272:64:64-i64:64-i128:128-f80:128-n8:16:32:64-S128"
target triple = "x86_64-pc-linux-gnu"

%struct.CodedBitstreamContext = type { ptr, ptr, ptr, ptr, i32, i32, i32, ptr, ptr, ptr, ptr, i64 }
%struct.CodedBitstreamType = type { i32, ptr, i64, ptr, ptr, ptr, ptr, ptr, ptr, ptr, ptr }
%struct.CodedBitstreamFragment = type { ptr, i64, i64, ptr, i32, i32, ptr }
%struct.H2645Packet = type { ptr, %struct.H2645RBSP, i32, i32, i32 }
%struct.H2645RBSP = type { ptr, ptr, i32, i32 }
%struct.GetBitContext = type { ptr, ptr, i32, i32, i32 }
%struct.H2645NAL = type { ptr, i32, i32, i32, ptr, %struct.GetBitContext, i32, i32, i32, i32, i32, i32, ptr }

@.str.13 = private unnamed_addr constant [29 x i8] c"Discarding empty 0 NAL unit\0A\00", align 1

; Function Attrs: nounwind uwtable
define internal i32 @cbs_h2645_fragment_add_nals(ptr noundef %0, ptr noundef %1, ptr noundef %2) #0 {
  %4 = alloca i32, align 4
  %5 = alloca ptr, align 8
  %6 = alloca ptr, align 8
  %7 = alloca ptr, align 8
  %8 = alloca i32, align 4
  %9 = alloca i32, align 4
  %10 = alloca ptr, align 8
  %11 = alloca ptr, align 8
  %12 = alloca i64, align 8
  %13 = alloca i32, align 4
  %14 = alloca i32, align 4
  store ptr %0, ptr %5, align 8, !tbaa !4
  store ptr %1, ptr %6, align 8, !tbaa !9
  store ptr %2, ptr %7, align 8, !tbaa !176
  call void @llvm.lifetime.start.p0(i64 4, ptr %8) #11
  call void @llvm.lifetime.start.p0(i64 4, ptr %9) #11
  store i32 0, ptr %9, align 4, !tbaa !11
  br label %15

15:                                               ; preds = %118, %3
  %16 = load i32, ptr %9, align 4, !tbaa !11
  %17 = load ptr, ptr %7, align 8, !tbaa !176
  %18 = getelementptr inbounds nuw %struct.H2645Packet, ptr %17, i32 0, i32 2
  %19 = load i32, ptr %18, align 8, !tbaa !178
  %20 = icmp slt i32 %16, %19
  br i1 %20, label %21, label %121

21:                                               ; preds = %15
  call void @llvm.lifetime.start.p0(i64 8, ptr %10) #11
  %22 = load ptr, ptr %7, align 8, !tbaa !176
  %23 = getelementptr inbounds nuw %struct.H2645Packet, ptr %22, i32 0, i32 0
  %24 = load ptr, ptr %23, align 8, !tbaa !179
  %25 = load i32, ptr %9, align 4, !tbaa !11
  %26 = sext i32 %25 to i64
  %27 = getelementptr inbounds %struct.H2645NAL, ptr %24, i64 %26
  store ptr %27, ptr %10, align 8, !tbaa !180
  call void @llvm.lifetime.start.p0(i64 8, ptr %11) #11
  call void @llvm.lifetime.start.p0(i64 8, ptr %12) #11
  %28 = load ptr, ptr %10, align 8, !tbaa !180
  %29 = getelementptr inbounds nuw %struct.H2645NAL, ptr %28, i32 0, i32 1
  %30 = load i32, ptr %29, align 8, !tbaa !181
  %31 = sext i32 %30 to i64
  store i64 %31, ptr %12, align 8, !tbaa !40
  call void @llvm.lifetime.start.p0(i64 4, ptr %13) #11
  %32 = load ptr, ptr %5, align 8, !tbaa !4
  %33 = getelementptr inbounds nuw %struct.CodedBitstreamContext, ptr %32, i32 0, i32 1
  %34 = load ptr, ptr %33, align 8, !tbaa !13
  %35 = getelementptr inbounds nuw %struct.CodedBitstreamType, ptr %34, i32 0, i32 0
  %36 = load i32, ptr %35, align 8, !tbaa !19
  store i32 %36, ptr %13, align 4, !tbaa !11
  %37 = load i32, ptr %13, align 4, !tbaa !11
  %38 = icmp eq i32 %37, 173
  br i1 %38, label %39, label %55

39:                                               ; preds = %21
  %40 = load ptr, ptr %10, align 8, !tbaa !180
  %41 = getelementptr inbounds nuw %struct.H2645NAL, ptr %40, i32 0, i32 9
  %42 = load i32, ptr %41, align 4, !tbaa !184
  %43 = icmp sgt i32 %42, 0
  br i1 %43, label %44, label %55

44:                                               ; preds = %39
  %45 = load ptr, ptr %10, align 8, !tbaa !180
  %46 = getelementptr inbounds nuw %struct.H2645NAL, ptr %45, i32 0, i32 6
  %47 = load i32, ptr %46, align 8, !tbaa !185
  %48 = icmp slt i32 %47, 32
  br i1 %48, label %54, label %49

49:                                               ; preds = %44
  %50 = load ptr, ptr %10, align 8, !tbaa !180
  %51 = getelementptr inbounds nuw %struct.H2645NAL, ptr %50, i32 0, i32 6
  %52 = load i32, ptr %51, align 8, !tbaa !185
  %53 = icmp sgt i32 %52, 34
  br i1 %53, label %54, label %55

54:                                               ; preds = %49, %44
  store i32 4, ptr %14, align 4
  br label %115

55:                                               ; preds = %49, %39, %21
  br label %56

56:                                               ; preds = %71, %55
  %57 = load i64, ptr %12, align 8, !tbaa !40
  %58 = icmp ugt i64 %57, 0
  br i1 %58, label %59, label %69

59:                                               ; preds = %56
  %60 = load ptr, ptr %10, align 8, !tbaa !180
  %61 = getelementptr inbounds nuw %struct.H2645NAL, ptr %60, i32 0, i32 0
  %62 = load ptr, ptr %61, align 8, !tbaa !186
  %63 = load i64, ptr %12, align 8, !tbaa !40
  %64 = sub i64 %63, 1
  %65 = getelementptr inbounds nuw i8, ptr %62, i64 %64
  %66 = load i8, ptr %65, align 1, !tbaa !32
  %67 = zext i8 %66 to i32
  %68 = icmp eq i32 %67, 0
  br label %69

69:                                               ; preds = %59, %56
  %70 = phi i1 [ false, %56 ], [ %68, %59 ]
  br i1 %70, label %71, label %74

71:                                               ; preds = %69
  %72 = load i64, ptr %12, align 8, !tbaa !40
  %73 = add i64 %72, -1
  store i64 %73, ptr %12, align 8, !tbaa !40
  br label %56, !llvm.loop !187

74:                                               ; preds = %69
  %75 = load i64, ptr %12, align 8, !tbaa !40
  %76 = icmp eq i64 %75, 0
  br i1 %76, label %77, label %81

77:                                               ; preds = %74
  %78 = load ptr, ptr %5, align 8, !tbaa !4
  %79 = getelementptr inbounds nuw %struct.CodedBitstreamContext, ptr %78, i32 0, i32 0
  %80 = load ptr, ptr %79, align 8, !tbaa !38
  call void (ptr, i32, ptr, ...) @av_log(ptr noundef %80, i32 noundef 40, ptr noundef @.str.13)
  store i32 4, ptr %14, align 4
  br label %115

81:                                               ; preds = %74
  %82 = load ptr, ptr %10, align 8, !tbaa !180
  %83 = getelementptr inbounds nuw %struct.H2645NAL, ptr %82, i32 0, i32 0
  %84 = load ptr, ptr %83, align 8, !tbaa !186
  %85 = load ptr, ptr %10, align 8, !tbaa !180
  %86 = getelementptr inbounds nuw %struct.H2645NAL, ptr %85, i32 0, i32 4
  %87 = load ptr, ptr %86, align 8, !tbaa !188
  %88 = icmp eq ptr %84, %87
  br i1 %88, label %89, label %93

89:                                               ; preds = %81
  %90 = load ptr, ptr %6, align 8, !tbaa !9
  %91 = getelementptr inbounds nuw %struct.CodedBitstreamFragment, ptr %90, i32 0, i32 3
  %92 = load ptr, ptr %91, align 8, !tbaa !88
  br label %98

93:                                               ; preds = %81
  %94 = load ptr, ptr %7, align 8, !tbaa !176
  %95 = getelementptr inbounds nuw %struct.H2645Packet, ptr %94, i32 0, i32 1
  %96 = getelementptr inbounds nuw %struct.H2645RBSP, ptr %95, i32 0, i32 1
  %97 = load ptr, ptr %96, align 8, !tbaa !189
  br label %98

98:                                               ; preds = %93, %89
  %99 = phi ptr [ %92, %89 ], [ %97, %93 ]
  store ptr %99, ptr %11, align 8, !tbaa !190
  %100 = load ptr, ptr %6, align 8, !tbaa !9
  %101 = load ptr, ptr %10, align 8, !tbaa !180
  %102 = getelementptr inbounds nuw %struct.H2645NAL, ptr %101, i32 0, i32 6
  %103 = load i32, ptr %102, align 8, !tbaa !185
  %104 = load ptr, ptr %10, align 8, !tbaa !180
  %105 = getelementptr inbounds nuw %struct.H2645NAL, ptr %104, i32 0, i32 0
  %106 = load ptr, ptr %105, align 8, !tbaa !186
  %107 = load i64, ptr %12, align 8, !tbaa !40
  %108 = load ptr, ptr %11, align 8, !tbaa !190
  %109 = call i32 @ff_cbs_append_unit_data(ptr noundef %100, i32 noundef %103, ptr noundef %106, i64 noundef %107, ptr noundef %108)
  store i32 %109, ptr %8, align 4, !tbaa !11
  %110 = load i32, ptr %8, align 4, !tbaa !11
  %111 = icmp slt i32 %110, 0
  br i1 %111, label %112, label %114

112:                                              ; preds = %98
  %113 = load i32, ptr %8, align 4, !tbaa !11
  store i32 %113, ptr %4, align 4
  store i32 1, ptr %14, align 4
  br label %115

114:                                              ; preds = %98
  store i32 0, ptr %14, align 4
  br label %115

115:                                              ; preds = %114, %112, %77, %54
  call void @llvm.lifetime.end.p0(i64 4, ptr %13) #11
  call void @llvm.lifetime.end.p0(i64 8, ptr %12) #11
  call void @llvm.lifetime.end.p0(i64 8, ptr %11) #11
  call void @llvm.lifetime.end.p0(i64 8, ptr %10) #11
  %116 = load i32, ptr %14, align 4
  switch i32 %116, label %122 [
    i32 0, label %117
    i32 4, label %118
  ]

117:                                              ; preds = %115
  br label %118

118:                                              ; preds = %117, %115
  %119 = load i32, ptr %9, align 4, !tbaa !11
  %120 = add nsw i32 %119, 1
  store i32 %120, ptr %9, align 4, !tbaa !11
  br label %15, !llvm.loop !191

121:                                              ; preds = %15
  store i32 0, ptr %4, align 4
  store i32 1, ptr %14, align 4
  br label %122

122:                                              ; preds = %121, %115
  call void @llvm.lifetime.end.p0(i64 4, ptr %9) #11
  call void @llvm.lifetime.end.p0(i64 4, ptr %8) #11
  %123 = load i32, ptr %4, align 4
  ret i32 %123
}