; Function Attrs: nounwind uwtable
define internal fastcc range(i32 -2147483648, 1) i32 @cbs_h2645_fragment_add_nals(ptr noundef readonly captures(none) %0, ptr noundef %1, ptr noundef readonly captures(none) %2) unnamed_addr #0 {
  %4 = getelementptr inbounds nuw i8, ptr %2, i64 32
  %5 = load i32, ptr %4, align 8, !tbaa !40
  %6 = icmp sgt i32 %5, 0
  br i1 %6, label %.lr.ph43, label %.critedge._crit_edge

.lr.ph43:                                         ; preds = %3
  %7 = getelementptr inbounds nuw i8, ptr %0, i64 8
  %8 = getelementptr inbounds nuw i8, ptr %1, i64 24
  %9 = getelementptr inbounds nuw i8, ptr %2, i64 16
  br label %10

10:                                               ; preds = %.lr.ph43, %43
  %indvars.iv = phi i64 [ 0, %.lr.ph43 ], [ %indvars.iv.next, %43 ]
  %11 = load ptr, ptr %2, align 8, !tbaa !41
  %12 = getelementptr inbounds nuw %struct.H2645NAL, ptr %11, i64 %indvars.iv
  %13 = getelementptr inbounds nuw i8, ptr %12, i64 8
  %14 = load i32, ptr %13, align 8, !tbaa !42
  %15 = sext i32 %14 to i64
  %16 = load ptr, ptr %7, align 8, !tbaa !4
  %17 = load i32, ptr %16, align 8, !tbaa !14
  %18 = icmp eq i32 %17, 173
  br i1 %18, label %19, label %27

19:                                               ; preds = %10
  %20 = getelementptr inbounds nuw i8, ptr %12, i64 76
  %21 = load i32, ptr %20, align 4, !tbaa !45
  %22 = icmp sgt i32 %21, 0
  br i1 %22, label %23, label %27

23:                                               ; preds = %19
  %24 = getelementptr inbounds nuw i8, ptr %12, i64 64
  %25 = load i32, ptr %24, align 8, !tbaa !46
  %26 = add i32 %25, -35
  %or.cond = icmp ult i32 %26, -3
  br i1 %or.cond, label %43, label %27

27:                                               ; preds = %23, %19, %10
  %cond39 = icmp eq i32 %14, 0
  br i1 %cond39, label %._crit_edge, label %.lr.ph

.lr.ph:                                           ; preds = %27
  %28 = load ptr, ptr %12, align 8, !tbaa !47
  %invariant.gep = getelementptr i8, ptr %28, i64 -1
  br label %29

29:                                               ; preds = %.lr.ph, %32
  %.03040 = phi i64 [ %15, %.lr.ph ], [ %33, %32 ]
  %gep = getelementptr i8, ptr %invariant.gep, i64 %.03040
  %30 = load i8, ptr %gep, align 1, !tbaa !25
  %31 = icmp eq i8 %30, 0
  br i1 %31, label %32, label %.critedge

32:                                               ; preds = %29
  %33 = add i64 %.03040, -1
  %cond = icmp eq i64 %33, 0
  br i1 %cond, label %._crit_edge, label %29, !llvm.loop !48

._crit_edge:                                      ; preds = %32, %27
  %34 = load ptr, ptr %0, align 8, !tbaa !31
  tail call void (ptr, i32, ptr, ...) @av_log(ptr noundef %34, i32 noundef 40, ptr noundef nonnull @.str.13) #11
  br label %43

.critedge:                                        ; preds = %29
  %35 = getelementptr inbounds nuw i8, ptr %12, i64 24
  %36 = load ptr, ptr %35, align 8, !tbaa !49
  %37 = icmp eq ptr %28, %36
  %.in = select i1 %37, ptr %8, ptr %9
  %38 = load ptr, ptr %.in, align 8, !tbaa !50
  %39 = getelementptr inbounds nuw i8, ptr %12, i64 64
  %40 = load i32, ptr %39, align 8, !tbaa !46
  %41 = tail call i32 @ff_cbs_append_unit_data(ptr noundef %1, i32 noundef %40, ptr noundef nonnull %28, i64 noundef %.03040, ptr noundef %38) #11
  %42 = icmp slt i32 %41, 0
  br i1 %42, label %.critedge._crit_edge, label %43

43:                                               ; preds = %._crit_edge, %23, %.critedge
  %indvars.iv.next = add nuw nsw i64 %indvars.iv, 1
  %44 = load i32, ptr %4, align 8, !tbaa !40
  %45 = sext i32 %44 to i64
  %46 = icmp slt i64 %indvars.iv.next, %45
  br i1 %46, label %10, label %.critedge._crit_edge, !llvm.loop !51

.critedge._crit_edge:                             ; preds = %43, %.critedge, %3
  %.2 = phi i32 [ 0, %3 ], [ %41, %.critedge ], [ 0, %43 ]
  ret i32 %.2
}